; Function Attrs: mustprogress uwtable
define void @_ZN6icu_759UVector325_initEiR10UErrorCode(ptr nocapture noundef nonnull align 8 dereferenceable(32) %this, i32 noundef %initialCapacity, ptr nocapture noundef nonnull writeonly align 4 dereferenceable(4) %status) local_unnamed_addr #1 align 2 {
entry:
  %cmp = icmp slt i32 %initialCapacity, 1
  %spec.store.select = select i1 %cmp, i32 8, i32 %initialCapacity
  %maxCapacity = getelementptr inbounds i8, ptr %this, i64 16
  %0 = load i32, ptr %maxCapacity, align 8
  %cmp2 = icmp sgt i32 %0, 0
  %1 = tail call i32 @llvm.smin.i32(i32 %0, i32 %spec.store.select)
  %initialCapacity.addr.0 = select i1 %cmp2, i32 %1, i32 %spec.store.select
  %cmp8 = icmp sgt i32 %initialCapacity.addr.0, 536870911
  br i1 %cmp8, label %if.then9, label %if.end11

if.then9:                                         ; preds = %entry
  %call = tail call i32 @uprv_min_75(i32 noundef 8, i32 noundef %0)
  br label %if.end11

if.end11:                                         ; preds = %if.then9, %entry
  %initialCapacity.addr.1 = phi i32 [ %call, %if.then9 ], [ %initialCapacity.addr.0, %entry ]
  %conv = sext i32 %initialCapacity.addr.1 to i64
  %mul = shl nsw i64 %conv, 2
  %call12 = tail call noalias ptr @uprv_malloc_75(i64 noundef %mul) #13
  %elements = getelementptr inbounds i8, ptr %this, i64 24
  store ptr %call12, ptr %elements, align 8
  %cmp14 = icmp eq ptr %call12, null
  br i1 %cmp14, label %if.then15, label %if.else

if.then15:                                        ; preds = %if.end11
  store i32 7, ptr %status, align 4
  br label %if.end16

if.else:                                          ; preds = %if.end11
  %capacity = getelementptr inbounds i8, ptr %this, i64 12
  store i32 %initialCapacity.addr.1, ptr %capacity, align 4
  br label %if.end16

if.end16:                                         ; preds = %if.else, %if.then15
  ret void
}